target datalayout = "e-m:e-p270:32:32-p271:32:32-p272:64:64-i64:64-i128:128-f80:128-n8:16:32:64-S128"
target triple = "x86_64-pc-linux-gnu"

%"class.clang::SemaBase::SemaDiagnosticBuilder" = type { ptr, %"class.clang::SourceLocation", i32, ptr, i8, [7 x i8], %"class.std::optional", %"class.std::optional.6" }
%"class.clang::SourceLocation" = type { i32 }
%"class.std::optional" = type { %"struct.std::_Optional_base" }
%"struct.std::_Optional_base" = type { %"struct.std::_Optional_payload" }
%"struct.std::_Optional_payload" = type { %"struct.std::_Optional_payload.base", [7 x i8] }
%"struct.std::_Optional_payload.base" = type { %"struct.std::_Optional_payload_base.base" }
%"struct.std::_Optional_payload_base.base" = type { %"union.std::_Optional_payload_base<clang::SemaBase::ImmediateDiagBuilder>::_Storage", i8 }
%"union.std::_Optional_payload_base<clang::SemaBase::ImmediateDiagBuilder>::_Storage" = type { %"class.clang::SemaBase::ImmediateDiagBuilder" }
%"class.clang::SemaBase::ImmediateDiagBuilder" = type <{ %"class.clang::DiagnosticBuilder.base", [6 x i8], ptr, i32, [4 x i8] }>
%"class.clang::DiagnosticBuilder.base" = type <{ %"class.clang::StreamingDiagnostic", ptr, i8, i8 }>
%"class.clang::StreamingDiagnostic" = type { ptr, ptr }
%"class.std::optional.6" = type { %"struct.std::_Optional_base.7" }
%"struct.std::_Optional_base.7" = type { %"struct.std::_Optional_payload.9" }
%"struct.std::_Optional_payload.9" = type { %"struct.std::_Optional_payload_base.base.11", [3 x i8] }
%"struct.std::_Optional_payload_base.base.11" = type <{ %"union.std::_Optional_payload_base<unsigned int>::_Storage", i8 }>
%"union.std::_Optional_payload_base<unsigned int>::_Storage" = type { i32 }
%"class.clang::Decl" = type <{ ptr, %"class.llvm::PointerIntPair", %"class.llvm::PointerUnion", %"class.clang::SourceLocation", i32, i8, [7 x i8] }>
%"class.llvm::PointerIntPair" = type { %"struct.llvm::detail::PunnedPointer" }
%"struct.llvm::detail::PunnedPointer" = type { [8 x i8] }
%"class.llvm::PointerUnion" = type { %"class.llvm::pointer_union_detail::PointerUnionMembers" }
%"class.llvm::pointer_union_detail::PointerUnionMembers" = type { %"class.llvm::pointer_union_detail::PointerUnionMembers.0" }
%"class.llvm::pointer_union_detail::PointerUnionMembers.0" = type { %"class.llvm::pointer_union_detail::PointerUnionMembers.1" }
%"class.llvm::pointer_union_detail::PointerUnionMembers.1" = type { %"class.llvm::PointerIntPair.2" }
%"class.llvm::PointerIntPair.2" = type { %"struct.llvm::detail::PunnedPointer.3" }
%"struct.llvm::detail::PunnedPointer.3" = type { [8 x i8] }

; Function Attrs: mustprogress nounwind uwtable
define linkonce_odr hidden i32 @_ZNK5clang4Decl11getLocationEv(ptr noundef nonnull align 8 dereferenceable(33) %0) #0 comdat align 2 {
  %2 = alloca %"class.clang::SourceLocation", align 4
  %3 = alloca ptr, align 8
  store ptr %0, ptr %3, align 8
  %4 = load ptr, ptr %3, align 8
  %5 = getelementptr inbounds nuw %"class.clang::Decl", ptr %4, i32 0, i32 3
  call void @llvm.memcpy.p0.p0.i64(ptr align 4 %2, ptr align 8 %5, i64 4, i1 false)
  %6 = getelementptr inbounds nuw %"class.clang::SourceLocation", ptr %2, i32 0, i32 0
  %7 = load i32, ptr %6, align 4
  ret i32 %7
}

; Function Attrs: mustprogress nounwind uwtable
define linkonce_odr hidden noundef i32 @_ZNK5clang4Decl9getAccessEv(ptr noundef nonnull align 8 dereferenceable(33) %0) #0 comdat align 2 {
  %2 = alloca ptr, align 8
  store ptr %0, ptr %2, align 8
  %3 = load ptr, ptr %2, align 8
  %4 = getelementptr inbounds nuw %"class.clang::Decl", ptr %3, i32 0, i32 4
  %5 = load i32, ptr %4, align 4
  %6 = lshr i32 %5, 13
  %7 = and i32 %6, 3
  ret i32 %7
}

; Function Attrs: mustprogress nounwind uwtable
define linkonce_odr hidden void @_ZN5clang4Decl9setAccessENS_15AccessSpecifierE(ptr noundef nonnull align 8 dereferenceable(33) %0, i32 noundef %1) #0 comdat align 2 {
  %3 = alloca ptr, align 8
  %4 = alloca i32, align 4
  store ptr %0, ptr %3, align 8
  store i32 %1, ptr %4, align 4
  %5 = load ptr, ptr %3, align 8
  %6 = load i32, ptr %4, align 4
  %7 = getelementptr inbounds nuw %"class.clang::Decl", ptr %5, i32 0, i32 4
  %8 = load i32, ptr %7, align 4
  %9 = and i32 %6, 3
  %10 = shl i32 %9, 13
  %11 = and i32 %8, -24577
  %12 = or i32 %11, %10
  store i32 %12, ptr %7, align 4
  ret void
}

; Function Attrs: mustprogress nounwind uwtable
define dso_local noundef zeroext i1 @_ZN5clang4Sema24SetMemberAccessSpecifierEPNS_9NamedDeclES2_NS_15AccessSpecifierE(ptr noundef nonnull align 8 dereferenceable(17560) %0, ptr noundef %1, ptr noundef %2, i32 noundef %3) #0 align 2 {
  %5 = alloca i1, align 1
  %6 = alloca ptr, align 8
  %7 = alloca ptr, align 8
  %8 = alloca ptr, align 8
  %9 = alloca i32, align 4
  %10 = alloca %"class.clang::SemaBase::SemaDiagnosticBuilder", align 8
  %11 = alloca %"class.clang::SourceLocation", align 4
  %12 = alloca %"class.clang::SemaBase::SemaDiagnosticBuilder", align 8
  %13 = alloca %"class.clang::SourceLocation", align 4
  %14 = alloca i32, align 4
  store ptr %0, ptr %6, align 8
  store ptr %1, ptr %7, align 8
  store ptr %2, ptr %8, align 8
  store i32 %3, ptr %9, align 4
  %15 = load ptr, ptr %6, align 8
  %16 = load ptr, ptr %8, align 8
  %17 = icmp ne ptr %16, null
  br i1 %17, label %21, label %18

18:                                               ; preds = %4
  %19 = load ptr, ptr %7, align 8
  %20 = load i32, ptr %9, align 4
  call void @_ZN5clang4Decl9setAccessENS_15AccessSpecifierE(ptr noundef nonnull align 8 dereferenceable(33) %19, i32 noundef %20)
  store i1 false, ptr %5, align 1
  br label %54

21:                                               ; preds = %4
  %22 = load i32, ptr %9, align 4
  %23 = icmp ne i32 %22, 3
  br i1 %23, label %24, label %50

24:                                               ; preds = %21
  %25 = load i32, ptr %9, align 4
  %26 = load ptr, ptr %8, align 8
  %27 = call noundef i32 @_ZNK5clang4Decl9getAccessEv(ptr noundef nonnull align 8 dereferenceable(33) %26)
  %28 = icmp ne i32 %25, %27
  br i1 %28, label %29, label %50

29:                                               ; preds = %24
  %30 = getelementptr inbounds i8, ptr %15, i64 8
  %31 = load ptr, ptr %7, align 8
  %32 = call i32 @_ZNK5clang4Decl11getLocationEv(ptr noundef nonnull align 8 dereferenceable(33) %31)
  %33 = getelementptr inbounds nuw %"class.clang::SourceLocation", ptr %11, i32 0, i32 0
  store i32 %32, ptr %33, align 4
  %34 = getelementptr inbounds nuw %"class.clang::SourceLocation", ptr %11, i32 0, i32 0
  %35 = load i32, ptr %34, align 4
  call void @_ZN5clang8SemaBase4DiagENS_14SourceLocationEjb(ptr dead_on_unwind writable sret(%"class.clang::SemaBase::SemaDiagnosticBuilder") align 8 %10, ptr noundef nonnull align 8 dereferenceable(8) %30, i32 %35, i32 noundef 3126, i1 noundef zeroext false)
  %36 = call noundef nonnull align 8 dereferenceable(96) ptr @_ZN5clanglsIPNS_9NamedDeclEEERKNS_8SemaBase21SemaDiagnosticBuilderES6_RKT_(ptr noundef nonnull align 8 dereferenceable(96) %10, ptr noundef nonnull align 8 dereferenceable(8) %7)
  %37 = call noundef nonnull align 8 dereferenceable(96) ptr @_ZN5clanglsINS_15AccessSpecifierEEERKNS_8SemaBase21SemaDiagnosticBuilderES5_RKT_(ptr noundef nonnull align 8 dereferenceable(96) %36, ptr noundef nonnull align 4 dereferenceable(4) %9)
  call void @_ZN5clang8SemaBase21SemaDiagnosticBuilderD1Ev(ptr noundef nonnull align 8 dereferenceable(96) %10) #11
  %38 = getelementptr inbounds i8, ptr %15, i64 8
  %39 = load ptr, ptr %8, align 8
  %40 = call i32 @_ZNK5clang4Decl11getLocationEv(ptr noundef nonnull align 8 dereferenceable(33) %39)
  %41 = getelementptr inbounds nuw %"class.clang::SourceLocation", ptr %13, i32 0, i32 0
  store i32 %40, ptr %41, align 4
  %42 = getelementptr inbounds nuw %"class.clang::SourceLocation", ptr %13, i32 0, i32 0
  %43 = load i32, ptr %42, align 4
  call void @_ZN5clang8SemaBase4DiagENS_14SourceLocationEjb(ptr dead_on_unwind writable sret(%"class.clang::SemaBase::SemaDiagnosticBuilder") align 8 %12, ptr noundef nonnull align 8 dereferenceable(8) %38, i32 %43, i32 noundef 5877, i1 noundef zeroext false)
  %44 = call noundef nonnull align 8 dereferenceable(96) ptr @_ZN5clanglsIPNS_9NamedDeclEEERKNS_8SemaBase21SemaDiagnosticBuilderES6_RKT_(ptr noundef nonnull align 8 dereferenceable(96) %12, ptr noundef nonnull align 8 dereferenceable(8) %8)
  %45 = load ptr, ptr %8, align 8
  %46 = call noundef i32 @_ZNK5clang4Decl9getAccessEv(ptr noundef nonnull align 8 dereferenceable(33) %45)
  store i32 %46, ptr %14, align 4
  %47 = call noundef nonnull align 8 dereferenceable(96) ptr @_ZNK5clang8SemaBase21SemaDiagnosticBuilderlsINS_15AccessSpecifierEvEERKS1_OT_(ptr noundef nonnull align 8 dereferenceable(96) %44, ptr noundef nonnull align 4 dereferenceable(4) %14)
  call void @_ZN5clang8SemaBase21SemaDiagnosticBuilderD1Ev(ptr noundef nonnull align 8 dereferenceable(96) %12) #11
  %48 = load ptr, ptr %7, align 8
  %49 = load i32, ptr %9, align 4
  call void @_ZN5clang4Decl9setAccessENS_15AccessSpecifierE(ptr noundef nonnull align 8 dereferenceable(33) %48, i32 noundef %49)
  store i1 true, ptr %5, align 1
  br label %54

50:                                               ; preds = %24, %21
  %51 = load ptr, ptr %7, align 8
  %52 = load ptr, ptr %8, align 8
  %53 = call noundef i32 @_ZNK5clang4Decl9getAccessEv(ptr noundef nonnull align 8 dereferenceable(33) %52)
  call void @_ZN5clang4Decl9setAccessENS_15AccessSpecifierE(ptr noundef nonnull align 8 dereferenceable(33) %51, i32 noundef %53)
  store i1 false, ptr %5, align 1
  br label %54

54:                                               ; preds = %50, %29, %18
  %55 = load i1, ptr %5, align 1
  ret i1 %55
}