; Function Attrs: mustprogress nounwind uwtable
define dso_local noundef zeroext i1 @_ZN5clang4Sema24SetMemberAccessSpecifierEPNS_9NamedDeclES2_NS_15AccessSpecifierE(ptr noundef nonnull align 8 dereferenceable(17560) %0, ptr noundef %1, ptr noundef %2, i32 noundef %3) local_unnamed_addr #0 align 2 {
  %5 = alloca ptr, align 8
  %6 = alloca ptr, align 8
  %7 = alloca i32, align 4
  %8 = alloca %"class.clang::SemaBase::SemaDiagnosticBuilder", align 8
  %9 = alloca %"class.clang::SemaBase::SemaDiagnosticBuilder", align 8
  %10 = alloca i32, align 4
  store ptr %1, ptr %5, align 8
  store ptr %2, ptr %6, align 8
  store i32 %3, ptr %7, align 4
  %.not = icmp eq ptr %2, null
  br i1 %.not, label %11, label %18

11:                                               ; preds = %4
  %12 = getelementptr inbounds nuw i8, ptr %1, i64 28
  %13 = load i32, ptr %12, align 4
  %14 = shl i32 %3, 13
  %15 = and i32 %14, 24576
  %16 = and i32 %13, -24577
  %17 = or disjoint i32 %16, %15
  store i32 %17, ptr %12, align 4
  br label %48

18:                                               ; preds = %4
  %.not5 = icmp eq i32 %3, 3
  %.phi.trans.insert = getelementptr inbounds nuw i8, ptr %2, i64 28
  %.pre = load i32, ptr %.phi.trans.insert, align 4
  br i1 %.not5, label %._crit_edge, label %19

19:                                               ; preds = %18
  %20 = lshr i32 %.pre, 13
  %21 = and i32 %20, 3
  %.not6 = icmp eq i32 %3, %21
  br i1 %.not6, label %._crit_edge, label %22

22:                                               ; preds = %19
  %23 = getelementptr inbounds nuw i8, ptr %0, i64 8
  %24 = getelementptr inbounds nuw i8, ptr %1, i64 24
  %.sroa.0.0.copyload.i = load i32, ptr %24, align 8
  call void @_ZN5clang8SemaBase4DiagENS_14SourceLocationEjb(ptr dead_on_unwind nonnull writable sret(%"class.clang::SemaBase::SemaDiagnosticBuilder") align 8 %8, ptr noundef nonnull align 8 dereferenceable(8) %23, i32 %.sroa.0.0.copyload.i, i32 noundef 3126, i1 noundef zeroext false) #13
  %25 = call noundef nonnull align 8 dereferenceable(96) ptr @_ZN5clanglsIPNS_9NamedDeclEEERKNS_8SemaBase21SemaDiagnosticBuilderES6_RKT_(ptr noundef nonnull align 8 dereferenceable(96) %8, ptr noundef nonnull align 8 dereferenceable(8) %5)
  %26 = call noundef nonnull align 8 dereferenceable(96) ptr @_ZN5clanglsINS_15AccessSpecifierEEERKNS_8SemaBase21SemaDiagnosticBuilderES5_RKT_(ptr noundef nonnull align 8 dereferenceable(96) %25, ptr noundef nonnull align 4 dereferenceable(4) %7)
  call void @_ZN5clang8SemaBase21SemaDiagnosticBuilderD1Ev(ptr noundef nonnull align 8 dereferenceable(96) %8) #13
  %27 = getelementptr inbounds nuw i8, ptr %2, i64 24
  %.sroa.0.0.copyload.i7 = load i32, ptr %27, align 8
  call void @_ZN5clang8SemaBase4DiagENS_14SourceLocationEjb(ptr dead_on_unwind nonnull writable sret(%"class.clang::SemaBase::SemaDiagnosticBuilder") align 8 %9, ptr noundef nonnull align 8 dereferenceable(8) %23, i32 %.sroa.0.0.copyload.i7, i32 noundef 5877, i1 noundef zeroext false) #13
  %28 = call noundef nonnull align 8 dereferenceable(96) ptr @_ZN5clanglsIPNS_9NamedDeclEEERKNS_8SemaBase21SemaDiagnosticBuilderES6_RKT_(ptr noundef nonnull align 8 dereferenceable(96) %9, ptr noundef nonnull align 8 dereferenceable(8) %6)
  %29 = load ptr, ptr %6, align 8
  %30 = getelementptr inbounds nuw i8, ptr %29, i64 28
  %31 = load i32, ptr %30, align 4
  %32 = lshr i32 %31, 13
  %33 = and i32 %32, 3
  store i32 %33, ptr %10, align 4
  %34 = call noundef nonnull align 8 dereferenceable(96) ptr @_ZNK5clang8SemaBase21SemaDiagnosticBuilderlsINS_15AccessSpecifierEvEERKS1_OT_(ptr noundef nonnull align 8 dereferenceable(96) %28, ptr noundef nonnull align 4 dereferenceable(4) %10)
  call void @_ZN5clang8SemaBase21SemaDiagnosticBuilderD1Ev(ptr noundef nonnull align 8 dereferenceable(96) %9) #13
  %35 = load ptr, ptr %5, align 8
  %36 = load i32, ptr %7, align 4
  %37 = getelementptr inbounds nuw i8, ptr %35, i64 28
  %38 = load i32, ptr %37, align 4
  %39 = shl i32 %36, 13
  %40 = and i32 %39, 24576
  %41 = and i32 %38, -24577
  %42 = or disjoint i32 %41, %40
  store i32 %42, ptr %37, align 4
  br label %48

._crit_edge:                                      ; preds = %18, %19
  %43 = and i32 %.pre, 24576
  %44 = getelementptr inbounds nuw i8, ptr %1, i64 28
  %45 = load i32, ptr %44, align 4
  %46 = and i32 %45, -24577
  %47 = or disjoint i32 %46, %43
  store i32 %47, ptr %44, align 4
  br label %48

48:                                               ; preds = %._crit_edge, %22, %11
  %.0 = phi i1 [ true, %22 ], [ false, %._crit_edge ], [ false, %11 ]
  ret i1 %.0
}